target datalayout = "e-m:e-p270:32:32-p271:32:32-p272:64:64-i64:64-i128:128-f80:128-n8:16:32:64-S128"
target triple = "x86_64-pc-linux-gnu"

%struct.lock_file = type { ptr }
%struct.object_id = type { [32 x i8], i32 }
%struct.hashmap = type { ptr, ptr, ptr, i32, i32, i32, i32, i8 }
%struct.string_list = type { ptr, i64, i64, i8, ptr }
%struct.string_list_item = type { ptr, ptr }
%struct.repository = type { ptr, ptr, ptr, ptr, ptr, %struct.strmap, %struct.strmap, %struct.repo_path_cache, ptr, ptr, ptr, ptr, %struct.repo_settings, ptr, ptr, ptr, ptr, ptr, ptr, i32, i32, i32, ptr, ptr, i32, i32, i8 }
%struct.strmap = type { %struct.hashmap, ptr, i8 }
%struct.repo_path_cache = type { ptr, ptr, ptr, ptr, ptr, ptr, ptr }
%struct.repo_settings = type { i32, i32, i32, i32, i32, i32, i32, i32, i32, i32, i32, i32, ptr, i32, i32, i32, i32, i32, i32, i32, i64, i64, i64 }
%struct.update_ref_record = type { %struct.object_id, %struct.object_id }

@the_repository = external global ptr, align 8
@.str.46 = private unnamed_addr constant [1 x i8] zeroinitializer, align 1
@git_gettext_enabled = external global i32, align 4
@.str.179 = private unnamed_addr constant [21 x i8] c"could not unlink: %s\00", align 1
@.str.180 = private unnamed_addr constant [43 x i8] c"unable to create leading directories of %s\00", align 1
@.str.181 = private unnamed_addr constant [73 x i8] c"another 'rebase' process appears to be running; '%s.lock' already exists\00", align 1
@.str.182 = private unnamed_addr constant [2 x i8] c"w\00", align 1
@.str.183 = private unnamed_addr constant [32 x i8] c"could not open '%s' for writing\00", align 1
@.str.184 = private unnamed_addr constant [10 x i8] c"%s\0A%s\0A%s\0A\00", align 1
@.str.475 = private unnamed_addr constant [28 x i8] c"%s/rebase-merge/update-refs\00", align 1

; Function Attrs: inlinehint nounwind uwtable
define internal i32 @hold_lock_file_for_update_timeout(ptr noundef %0, ptr noundef %1, i32 noundef %2, i64 noundef %3) #1 {
  %5 = alloca ptr, align 8
  %6 = alloca ptr, align 8
  %7 = alloca i32, align 4
  %8 = alloca i64, align 8
  store ptr %0, ptr %5, align 8, !tbaa !327
  store ptr %1, ptr %6, align 8, !tbaa !4
  store i32 %2, ptr %7, align 4, !tbaa !29
  store i64 %3, ptr %8, align 8, !tbaa !43
  %9 = load ptr, ptr %5, align 8, !tbaa !327
  %10 = load ptr, ptr %6, align 8, !tbaa !4
  %11 = load i32, ptr %7, align 4, !tbaa !29
  %12 = load i64, ptr %8, align 8, !tbaa !43
  %13 = call i32 @hold_lock_file_for_update_timeout_mode(ptr noundef %9, ptr noundef %10, i32 noundef %11, i64 noundef %12, i32 noundef 438)
  ret i32 %13
}

; Function Attrs: inlinehint nounwind uwtable
define internal i32 @rollback_lock_file(ptr noundef %0) #1 {
  %2 = alloca ptr, align 8
  store ptr %0, ptr %2, align 8, !tbaa !327
  %3 = load ptr, ptr %2, align 8, !tbaa !327
  %4 = getelementptr inbounds nuw %struct.lock_file, ptr %3, i32 0, i32 0
  %5 = call i32 @delete_tempfile(ptr noundef %4)
  ret i32 %5
}

; Function Attrs: inlinehint nounwind uwtable
define internal ptr @fdopen_lock_file(ptr noundef %0, ptr noundef %1) #1 {
  %3 = alloca ptr, align 8
  %4 = alloca ptr, align 8
  store ptr %0, ptr %3, align 8, !tbaa !327
  store ptr %1, ptr %4, align 8, !tbaa !4
  %5 = load ptr, ptr %3, align 8, !tbaa !327
  %6 = getelementptr inbounds nuw %struct.lock_file, ptr %5, i32 0, i32 0
  %7 = load ptr, ptr %6, align 8, !tbaa !329
  %8 = load ptr, ptr %4, align 8, !tbaa !4
  %9 = call ptr @fdopen_tempfile(ptr noundef %7, ptr noundef %8)
  ret ptr %9
}

; Function Attrs: inlinehint nounwind uwtable
define internal i32 @hold_lock_file_for_update(ptr noundef %0, ptr noundef %1, i32 noundef %2) #1 {
  %4 = alloca ptr, align 8
  %5 = alloca ptr, align 8
  %6 = alloca i32, align 4
  store ptr %0, ptr %4, align 8, !tbaa !327
  store ptr %1, ptr %5, align 8, !tbaa !4
  store i32 %2, ptr %6, align 4, !tbaa !29
  %7 = load ptr, ptr %4, align 8, !tbaa !327
  %8 = load ptr, ptr %5, align 8, !tbaa !4
  %9 = load i32, ptr %6, align 4, !tbaa !29
  %10 = call i32 @hold_lock_file_for_update_timeout(ptr noundef %7, ptr noundef %8, i32 noundef %9, i64 noundef 0)
  ret i32 %10
}

; Function Attrs: inlinehint nounwind uwtable
define internal i32 @const_error() #1 {
  ret i32 -1
}

; Function Attrs: inlinehint nounwind uwtable
define internal ptr @_(ptr noundef %0) #1 {
  %2 = alloca ptr, align 8
  %3 = alloca ptr, align 8
  store ptr %0, ptr %3, align 8, !tbaa !4
  %4 = load ptr, ptr %3, align 8, !tbaa !4
  %5 = load i8, ptr %4, align 1, !tbaa !30
  %6 = icmp ne i8 %5, 0
  br i1 %6, label %8, label %7

7:                                                ; preds = %1
  store ptr @.str.46, ptr %2, align 8
  br label %16

8:                                                ; preds = %1
  %9 = load i32, ptr @git_gettext_enabled, align 4, !tbaa !29
  %10 = icmp ne i32 %9, 0
  br i1 %10, label %13, label %11

11:                                               ; preds = %8
  %12 = load ptr, ptr %3, align 8, !tbaa !4
  store ptr %12, ptr %2, align 8
  br label %16

13:                                               ; preds = %8
  %14 = load ptr, ptr %3, align 8, !tbaa !4
  %15 = call ptr @dcgettext(ptr noundef null, ptr noundef %14, i32 noundef 5) #11
  store ptr %15, ptr %2, align 8
  br label %16

16:                                               ; preds = %13, %11, %7
  %17 = load ptr, ptr %2, align 8
  ret ptr %17
}

; Function Attrs: nounwind uwtable
define internal ptr @rebase_path_update_refs(ptr noundef %0) #0 {
  %2 = alloca ptr, align 8
  store ptr %0, ptr %2, align 8, !tbaa !4
  %3 = load ptr, ptr %2, align 8, !tbaa !4
  %4 = call ptr (ptr, ...) @xstrfmt(ptr noundef @.str.475, ptr noundef %3)
  ret ptr %4
}

; Function Attrs: nounwind uwtable
define internal i32 @write_update_refs_state(ptr noundef %0) #0 {
  %2 = alloca ptr, align 8
  %3 = alloca i32, align 4
  %4 = alloca %struct.lock_file, align 8
  %5 = alloca ptr, align 8
  %6 = alloca ptr, align 8
  %7 = alloca ptr, align 8
  %8 = alloca ptr, align 8
  store ptr %0, ptr %2, align 8, !tbaa !76
  call void @llvm.lifetime.start.p0(i64 4, ptr %3) #11
  store i32 0, ptr %3, align 4, !tbaa !29
  call void @llvm.lifetime.start.p0(i64 8, ptr %4) #11
  call void @llvm.memset.p0.i64(ptr align 8 %4, i8 0, i64 8, i1 false)
  call void @llvm.lifetime.start.p0(i64 8, ptr %5) #11
  store ptr null, ptr %5, align 8, !tbaa !178
  call void @llvm.lifetime.start.p0(i64 8, ptr %6) #11
  call void @llvm.lifetime.start.p0(i64 8, ptr %7) #11
  %9 = load ptr, ptr @the_repository, align 8, !tbaa !9
  %10 = getelementptr inbounds nuw %struct.repository, ptr %9, i32 0, i32 0
  %11 = load ptr, ptr %10, align 8, !tbaa !194
  %12 = call ptr @rebase_path_update_refs(ptr noundef %11)
  store ptr %12, ptr %7, align 8, !tbaa !4
  %13 = load ptr, ptr %2, align 8, !tbaa !76
  %14 = getelementptr inbounds nuw %struct.string_list, ptr %13, i32 0, i32 1
  %15 = load i64, ptr %14, align 8, !tbaa !68
  %16 = icmp ne i64 %15, 0
  br i1 %16, label %31, label %17

17:                                               ; preds = %1
  %18 = load ptr, ptr %7, align 8, !tbaa !4
  %19 = call i32 @unlink(ptr noundef %18) #11
  %20 = icmp ne i32 %19, 0
  br i1 %20, label %21, label %30

21:                                               ; preds = %17
  %22 = call ptr @__errno_location() #14
  %23 = load i32, ptr %22, align 4, !tbaa !29
  %24 = icmp ne i32 %23, 2
  br i1 %24, label %25, label %30

25:                                               ; preds = %21
  %26 = call ptr @_(ptr noundef @.str.179)
  %27 = load ptr, ptr %7, align 8, !tbaa !4
  %28 = call i32 (ptr, ...) @error_errno(ptr noundef %26, ptr noundef %27)
  %29 = call i32 @const_error()
  store i32 %29, ptr %3, align 4, !tbaa !29
  br label %30

30:                                               ; preds = %25, %21, %17
  br label %98

31:                                               ; preds = %1
  %32 = load ptr, ptr %7, align 8, !tbaa !4
  %33 = call i32 @safe_create_leading_directories(ptr noundef %32)
  %34 = icmp ne i32 %33, 0
  br i1 %34, label %35, label %40

35:                                               ; preds = %31
  %36 = call ptr @_(ptr noundef @.str.180)
  %37 = load ptr, ptr %7, align 8, !tbaa !4
  %38 = call i32 (ptr, ...) @error(ptr noundef %36, ptr noundef %37)
  %39 = call i32 @const_error()
  store i32 %39, ptr %3, align 4, !tbaa !29
  br label %98

40:                                               ; preds = %31
  %41 = load ptr, ptr %7, align 8, !tbaa !4
  %42 = call i32 @hold_lock_file_for_update(ptr noundef %4, ptr noundef %41, i32 noundef 0)
  %43 = icmp slt i32 %42, 0
  br i1 %43, label %44, label %49

44:                                               ; preds = %40
  %45 = call ptr @_(ptr noundef @.str.181)
  %46 = load ptr, ptr %7, align 8, !tbaa !4
  %47 = call i32 (ptr, ...) @error(ptr noundef %45, ptr noundef %46)
  %48 = call i32 @const_error()
  store i32 %48, ptr %3, align 4, !tbaa !29
  br label %98

49:                                               ; preds = %40
  %50 = call ptr @fdopen_lock_file(ptr noundef %4, ptr noundef @.str.182)
  store ptr %50, ptr %5, align 8, !tbaa !178
  %51 = load ptr, ptr %5, align 8, !tbaa !178
  %52 = icmp ne ptr %51, null
  br i1 %52, label %59, label %53

53:                                               ; preds = %49
  %54 = call ptr @_(ptr noundef @.str.183)
  %55 = load ptr, ptr %7, align 8, !tbaa !4
  %56 = call i32 (ptr, ...) @error_errno(ptr noundef %54, ptr noundef %55)
  %57 = call i32 @const_error()
  store i32 %57, ptr %3, align 4, !tbaa !29
  %58 = call i32 @rollback_lock_file(ptr noundef %4)
  br label %98

59:                                               ; preds = %49
  %60 = load ptr, ptr %2, align 8, !tbaa !76
  %61 = getelementptr inbounds nuw %struct.string_list, ptr %60, i32 0, i32 0
  %62 = load ptr, ptr %61, align 8, !tbaa !71
  store ptr %62, ptr %6, align 8, !tbaa !77
  br label %63

63:                                               ; preds = %93, %59
  %64 = load ptr, ptr %6, align 8, !tbaa !77
  %65 = icmp ne ptr %64, null
  br i1 %65, label %66, label %76

66:                                               ; preds = %63
  %67 = load ptr, ptr %6, align 8, !tbaa !77
  %68 = load ptr, ptr %2, align 8, !tbaa !76
  %69 = getelementptr inbounds nuw %struct.string_list, ptr %68, i32 0, i32 0
  %70 = load ptr, ptr %69, align 8, !tbaa !71
  %71 = load ptr, ptr %2, align 8, !tbaa !76
  %72 = getelementptr inbounds nuw %struct.string_list, ptr %71, i32 0, i32 1
  %73 = load i64, ptr %72, align 8, !tbaa !68
  %74 = getelementptr inbounds nuw %struct.string_list_item, ptr %70, i64 %73
  %75 = icmp ult ptr %67, %74
  br label %76

76:                                               ; preds = %66, %63
  %77 = phi i1 [ false, %63 ], [ %75, %66 ]
  br i1 %77, label %78, label %96

78:                                               ; preds = %76
  call void @llvm.lifetime.start.p0(i64 8, ptr %8) #11
  %79 = load ptr, ptr %6, align 8, !tbaa !77
  %80 = getelementptr inbounds nuw %struct.string_list_item, ptr %79, i32 0, i32 1
  %81 = load ptr, ptr %80, align 8, !tbaa !75
  store ptr %81, ptr %8, align 8, !tbaa !195
  %82 = load ptr, ptr %5, align 8, !tbaa !178
  %83 = load ptr, ptr %6, align 8, !tbaa !77
  %84 = getelementptr inbounds nuw %struct.string_list_item, ptr %83, i32 0, i32 0
  %85 = load ptr, ptr %84, align 8, !tbaa !72
  %86 = load ptr, ptr %8, align 8, !tbaa !195
  %87 = getelementptr inbounds nuw %struct.update_ref_record, ptr %86, i32 0, i32 0
  %88 = call ptr @oid_to_hex(ptr noundef %87)
  %89 = load ptr, ptr %8, align 8, !tbaa !195
  %90 = getelementptr inbounds nuw %struct.update_ref_record, ptr %89, i32 0, i32 1
  %91 = call ptr @oid_to_hex(ptr noundef %90)
  %92 = call i32 (ptr, ptr, ...) @fprintf(ptr noundef %82, ptr noundef @.str.184, ptr noundef %85, ptr noundef %88, ptr noundef %91) #11
  call void @llvm.lifetime.end.p0(i64 8, ptr %8) #11
  br label %93

93:                                               ; preds = %78
  %94 = load ptr, ptr %6, align 8, !tbaa !77
  %95 = getelementptr inbounds nuw %struct.string_list_item, ptr %94, i32 1
  store ptr %95, ptr %6, align 8, !tbaa !77
  br label %63, !llvm.loop !202

96:                                               ; preds = %76
  %97 = call i32 @commit_lock_file(ptr noundef %4)
  store i32 %97, ptr %3, align 4, !tbaa !29
  br label %98

98:                                               ; preds = %96, %53, %44, %35, %30
  %99 = load ptr, ptr %7, align 8, !tbaa !4
  call void @free(ptr noundef %99) #11
  %100 = load i32, ptr %3, align 4, !tbaa !29
  call void @llvm.lifetime.end.p0(i64 8, ptr %7) #11
  call void @llvm.lifetime.end.p0(i64 8, ptr %6) #11
  call void @llvm.lifetime.end.p0(i64 8, ptr %5) #11
  call void @llvm.lifetime.end.p0(i64 8, ptr %4) #11
  call void @llvm.lifetime.end.p0(i64 4, ptr %3) #11
  ret i32 %100
}