; Function Attrs: nounwind uwtable
define internal fastcc i32 @write_update_refs_state(ptr noundef nonnull readonly captures(none) %0) unnamed_addr #0 {
  %2 = alloca %struct.lock_file, align 8
  call void @llvm.lifetime.start.p0(i64 8, ptr nonnull %2) #20
  store i64 0, ptr %2, align 8
  %3 = load ptr, ptr @the_repository, align 8, !tbaa !9
  %4 = load ptr, ptr %3, align 8, !tbaa !181
  %5 = tail call ptr (ptr, ...) @xstrfmt(ptr noundef nonnull @.str.475, ptr noundef %4) #20
  %6 = getelementptr inbounds nuw i8, ptr %0, i64 8
  %7 = load i64, ptr %6, align 8, !tbaa !58
  %.not = icmp eq i64 %7, 0
  br i1 %.not, label %8, label %18

8:                                                ; preds = %1
  %9 = tail call i32 @unlink(ptr noundef %5) #20
  %.not23 = icmp eq i32 %9, 0
  br i1 %.not23, label %60, label %10

10:                                               ; preds = %8
  %11 = tail call ptr @__errno_location() #23
  %12 = load i32, ptr %11, align 4, !tbaa !21
  %.not24 = icmp eq i32 %12, 2
  br i1 %.not24, label %60, label %13

13:                                               ; preds = %10
  %14 = load i32, ptr @git_gettext_enabled, align 4, !tbaa !21
  %.not4.i = icmp eq i32 %14, 0
  br i1 %.not4.i, label %_.exit, label %15

15:                                               ; preds = %13
  %16 = tail call ptr @dcgettext(ptr noundef null, ptr noundef nonnull @.str.179, i32 noundef 5) #20
  br label %_.exit

_.exit:                                           ; preds = %13, %15
  %.0.i = phi ptr [ %16, %15 ], [ @.str.179, %13 ]
  %17 = tail call i32 (ptr, ...) @error_errno(ptr noundef %.0.i, ptr noundef %5) #20
  br label %60

18:                                               ; preds = %1
  %19 = tail call i32 @safe_create_leading_directories(ptr noundef %5) #20
  %.not25 = icmp eq i32 %19, 0
  br i1 %.not25, label %25, label %20

20:                                               ; preds = %18
  %21 = load i32, ptr @git_gettext_enabled, align 4, !tbaa !21
  %.not4.i28 = icmp eq i32 %21, 0
  br i1 %.not4.i28, label %_.exit30, label %22

22:                                               ; preds = %20
  %23 = tail call ptr @dcgettext(ptr noundef null, ptr noundef nonnull @.str.180, i32 noundef 5) #20
  br label %_.exit30

_.exit30:                                         ; preds = %20, %22
  %.0.i29 = phi ptr [ %23, %22 ], [ @.str.180, %20 ]
  %24 = tail call i32 (ptr, ...) @error(ptr noundef %.0.i29, ptr noundef %5) #20
  br label %60

25:                                               ; preds = %18
  %26 = call i32 @hold_lock_file_for_update_timeout_mode(ptr noundef nonnull %2, ptr noundef %5, i32 noundef range(i32 0, 5) 0, i64 noundef 0, i32 noundef 438) #20
  %27 = icmp slt i32 %26, 0
  br i1 %27, label %28, label %33

28:                                               ; preds = %25
  %29 = load i32, ptr @git_gettext_enabled, align 4, !tbaa !21
  %.not4.i31 = icmp eq i32 %29, 0
  br i1 %.not4.i31, label %_.exit33, label %30

30:                                               ; preds = %28
  %31 = call ptr @dcgettext(ptr noundef null, ptr noundef nonnull @.str.181, i32 noundef 5) #20
  br label %_.exit33

_.exit33:                                         ; preds = %28, %30
  %.0.i32 = phi ptr [ %31, %30 ], [ @.str.181, %28 ]
  %32 = call i32 (ptr, ...) @error(ptr noundef %.0.i32, ptr noundef %5) #20
  br label %60

33:                                               ; preds = %25
  %.val = load ptr, ptr %2, align 8, !tbaa !186
  %34 = call ptr @fdopen_tempfile(ptr noundef %.val, ptr noundef nonnull @.str.182) #20
  %.not26 = icmp eq ptr %34, null
  br i1 %.not26, label %35, label %41

35:                                               ; preds = %33
  %36 = load i32, ptr @git_gettext_enabled, align 4, !tbaa !21
  %.not4.i34 = icmp eq i32 %36, 0
  br i1 %.not4.i34, label %_.exit36, label %37

37:                                               ; preds = %35
  %38 = call ptr @dcgettext(ptr noundef null, ptr noundef nonnull @.str.183, i32 noundef 5) #20
  br label %_.exit36

_.exit36:                                         ; preds = %35, %37
  %.0.i35 = phi ptr [ %38, %37 ], [ @.str.183, %35 ]
  %39 = call i32 (ptr, ...) @error_errno(ptr noundef %.0.i35, ptr noundef %5) #20
  %40 = call i32 @delete_tempfile(ptr noundef nonnull %2) #20
  br label %60

41:                                               ; preds = %33
  %42 = load ptr, ptr %0, align 8, !tbaa !61
  %.not2737 = icmp eq ptr %42, null
  br i1 %.not2737, label %.critedge, label %.lr.ph.preheader

.lr.ph.preheader:                                 ; preds = %41
  %43 = load ptr, ptr %0, align 8, !tbaa !61
  %44 = load i64, ptr %6, align 8, !tbaa !58
  %45 = getelementptr inbounds nuw %struct.string_list_item, ptr %43, i64 %44
  %46 = icmp ult ptr %42, %45
  br i1 %46, label %.lr.ph, label %.critedge

.lr.ph:                                           ; preds = %.lr.ph.preheader, %.lr.ph
  %.0213840 = phi ptr [ %54, %.lr.ph ], [ %42, %.lr.ph.preheader ]
  %47 = getelementptr inbounds nuw i8, ptr %.0213840, i64 8
  %48 = load ptr, ptr %47, align 8, !tbaa !57
  %49 = load ptr, ptr %.0213840, align 8, !tbaa !55
  %50 = call ptr @oid_to_hex(ptr noundef %48) #20
  %51 = getelementptr inbounds nuw i8, ptr %48, i64 36
  %52 = call ptr @oid_to_hex(ptr noundef nonnull %51) #20
  %53 = call i32 (ptr, ptr, ...) @fprintf(ptr noundef nonnull %34, ptr noundef nonnull @.str.184, ptr noundef %49, ptr noundef %50, ptr noundef %52) #20
  %54 = getelementptr inbounds nuw i8, ptr %.0213840, i64 16
  %55 = load ptr, ptr %0, align 8, !tbaa !61
  %56 = load i64, ptr %6, align 8, !tbaa !58
  %57 = getelementptr inbounds nuw %struct.string_list_item, ptr %55, i64 %56
  %58 = icmp ult ptr %54, %57
  br i1 %58, label %.lr.ph, label %.critedge

.critedge:                                        ; preds = %.lr.ph, %.lr.ph.preheader, %41
  %59 = call i32 @commit_lock_file(ptr noundef nonnull %2) #20
  br label %60

60:                                               ; preds = %8, %10, %_.exit, %.critedge, %_.exit36, %_.exit33, %_.exit30
  %.0 = phi i32 [ -1, %_.exit30 ], [ -1, %_.exit33 ], [ %59, %.critedge ], [ -1, %_.exit36 ], [ -1, %_.exit ], [ 0, %10 ], [ 0, %8 ]
  call void @free(ptr noundef %5) #20
  call void @llvm.lifetime.end.p0(i64 8, ptr nonnull %2) #20
  ret i32 %.0
}